; Function Attrs: mustprogress uwtable
define internal void @_ZNK7testing8internal11MatcherBaseIRKPN12_GLOBAL__N_118ConstructionTesterEE10DescribeToEPSo(ptr noundef nonnull align 8 dereferenceable(24) %0, ptr noundef %1) unnamed_addr #4 align 2 personality ptr @__gxx_personality_v0 {
  %3 = alloca %"class.testing::internal::GTestLog", align 4
  %4 = getelementptr inbounds nuw i8, ptr %0, i64 8
  %5 = load ptr, ptr %4, align 8, !tbaa !960
  %6 = icmp ne ptr %5, null
  %7 = tail call noundef zeroext i1 @_ZN7testing8internal6IsTrueEb(i1 noundef zeroext %6)
  br i1 %7, label %12, label %8

8:                                                ; preds = %2
  call void @llvm.lifetime.start.p0(i64 4, ptr nonnull %3) #27
  call void @_ZN7testing8internal8GTestLogC1ENS0_16GTestLogSeverityEPKci(ptr noundef nonnull align 4 dereferenceable(4) %3, i32 noundef 3, ptr noundef nonnull @.str.97, i32 noundef 245)
  %9 = invoke noundef nonnull align 8 dereferenceable(8) ptr @_ZSt16__ostream_insertIcSt11char_traitsIcEERSt13basic_ostreamIT_T0_ES6_PKS3_l(ptr noundef nonnull align 8 dereferenceable(8) @_ZSt4cerr, ptr noundef nonnull @.str.98, i64 noundef 37)
          to label %_ZStlsISt11char_traitsIcEERSt13basic_ostreamIcT_ES5_PKc.exit unwind label %10

_ZStlsISt11char_traitsIcEERSt13basic_ostreamIcT_ES5_PKc.exit: ; preds = %8
  call void @_ZN7testing8internal8GTestLogD1Ev(ptr noundef nonnull align 4 dereferenceable(4) %3) #27
  call void @llvm.lifetime.end.p0(i64 4, ptr nonnull %3) #27
  br label %12

10:                                               ; preds = %8
  %11 = landingpad { ptr, i32 }
          cleanup
  call void @_ZN7testing8internal8GTestLogD1Ev(ptr noundef nonnull align 4 dereferenceable(4) %3) #27
  call void @llvm.lifetime.end.p0(i64 4, ptr nonnull %3) #27
  resume { ptr, i32 } %11

12:                                               ; preds = %2, %_ZStlsISt11char_traitsIcEERSt13basic_ostreamIcT_ES5_PKc.exit
  %13 = load ptr, ptr %4, align 8, !tbaa !960
  %14 = getelementptr inbounds nuw i8, ptr %13, i64 8
  %15 = load ptr, ptr %14, align 8, !tbaa !965
  call void %15(ptr noundef nonnull align 8 dereferenceable(24) %0, ptr noundef %1, i1 noundef zeroext false)
  ret void
}